Certificate:
    Data:
        Version: 3 (0x2)
        Serial Number: 749114 (0xb6e3a)
        Signature Algorithm: sha1WithRSAEncryption
        Issuer: C=US, ST=California, L=Sunnyvale, O=Fortinet, OU=Certificate Authority, CN=support/emailAddress=support@fortinet.com
        Validity
            Not Before: Nov  2 21:06:07 2009 GMT
            Not After : Dec 17 21:06:07 2029 GMT
        Subject: C=US, ST=California, L=Sunnyvale, O=Fortinet, OU=Fortianalyzer, CN=Fortianalyzer/emailAddress=support@fortinet.com
        Subject Public Key Info:
            Public Key Algorithm: rsaEncryption
            RSA Public Key: (2048 bit)
                Modulus (2048 bit):
                    00:e0:c2:6a:72:f7:13:5a:7e:e8:fe:e6:5f:96:5b:
                    8c:a1:4a:47:b3:5c:bf:af:52:22:46:86:bf:32:df:
                    19:64:20:ef:b2:75:96:0e:be:24:bc:f9:b8:59:81:
                    1b:0c:b0:71:c1:74:b0:44:74:d2:9d:85:b4:e0:3f:
                    30:8f:32:e5:a8:b8:32:59:0b:2a:e7:54:60:35:e6:
                    93:f4:8a:44:69:f3:b9:3e:81:da:72:95:d6:c0:d2:
                    a5:c9:fe:86:d7:fc:a7:ed:38:7f:1b:85:7e:88:c0:
                    88:4c:d0:20:c8:6e:f6:23:41:68:32:b8:68:6f:3f:
                    53:4b:e4:59:20:c3:ef:55:48:f1:56:16:22:7a:59:
                    25:b8:e9:f0:ce:5d:dd:cf:07:27:97:78:0c:2b:6f:
                    f3:1e:64:59:76:76:7d:82:d1:33:10:27:3e:6c:36:
                    cd:cb:e5:f9:07:a9:6e:c4:81:47:e3:95:f0:c8:4a:
                    21:f9:f9:1d:79:b8:57:47:0a:c0:cf:e8:c1:9b:1f:
                    89:5d:65:df:f5:c5:2d:98:5e:f7:0c:8e:23:33:a4:
                    3e:15:c6:ce:1c:c0:a8:d5:2d:ec:ba:93:d5:43:aa:
                    1b:57:9a:7b:bf:fa:18:d7:e7:5a:12:61:4a:0c:36:
                    87:41:b8:6d:63:ea:ce:02:0a:14:5a:f2:dc:d6:41:
                    9b:3f
                Exponent: 65537 (0x10001)
        X509v3 extensions:
            X509v3 Basic Constraints: 
                CA:FALSE
    Signature Algorithm: sha1WithRSAEncryption
        5d:76:05:50:62:09:a6:75:a9:8e:03:ea:ea:b1:55:34:1d:48:
        88:9f:c6:08:aa:00:04:d1:98:b5:82:ba:44:bd:59:98:8f:ed:
        80:66:f9:3d:48:72:51:5f:e2:9c:bb:0f:d2:8b:fa:ee:75:29:
        88:ae:cf:02:65:f5:96:b0:b5:cc:25:89:d0:84:69:18:a6:b0:
        27:24:52:72:5f:8b:04:a8:7a:8f:07:b6:ab:75:f0:2d:2a:c9:
        ee:01:a2:7f:ba:84:f5:3d:10:1b:91:3c:60:b6:6e:88:bb:09:
        9b:72:51:fb:fd:d6:d5:3b:bd:01:ec:36:cc:9f:76:3f:81:c9:
        3d:26:e6:93:6d:f9:77:f3:a9:65:36:d2:c7:aa:4d:60:a8:05:
        b5:46:2d:59:5b:e3:e5:66:97:aa:7c:fd:d3:10:d3:96:a0:b3:
        68:47:0f:9c:49:74:42:64:75:75:d0:b2:59:05:20:b0:96:9f:
        47:ae:01:4f:fb:e7:b1:8d:0f:cb:6d:cd:db:74:85:9e:84:0b:
        80:8c:7a:ab:4c:fc:60:e5:09:46:11:c7:bb:f7:b4:e3:1e:9c:
        be:96:8f:67:85:49:06:28:4b:48:64:ec:50:1e:1a:1b:89:7f:
        9f:4f:d9:ad:52:35:5e:8e:e2:6e:fb:fe:4e:d9:26:49:59:55:
        c0:14:81:77
-----BEGIN CERTIFICATE-----
MIIDyjCCArKgAwIBAgIDC246MA0GCSqGSIb3DQEBBQUAMIGgMQswCQYDVQQGEwJV
UzETMBEGA1UECBMKQ2FsaWZvcm5pYTESMBAGA1UEBxMJU3Vubnl2YWxlMREwDwYD
VQQKEwhGb3J0aW5ldDEeMBwGA1UECxMVQ2VydGlmaWNhdGUgQXV0aG9yaXR5MRAw
DgYDVQQDEwdzdXBwb3J0MSMwIQYJKoZIhvcNAQkBFhRzdXBwb3J0QGZvcnRpbmV0
LmNvbTAeFw0wOTExMDIyMTA2MDdaFw0yOTEyMTcyMTA2MDdaMIGeMQswCQYDVQQG
EwJVUzETMBEGA1UECBMKQ2FsaWZvcm5pYTESMBAGA1UEBxMJU3Vubnl2YWxlMREw
DwYDVQQKEwhGb3J0aW5ldDEWMBQGA1UECxMNRm9ydGlhbmFseXplcjEWMBQGA1UE
AxMNRm9ydGlhbmFseXplcjEjMCEGCSqGSIb3DQEJARYUc3VwcG9ydEBmb3J0aW5l
dC5jb20wggEiMA0GCSqGSIb3DQEBAQUAA4IBDwAwggEKAoIBAQDgwmpy9xNafuj+
5l+WW4yhSkezXL+vUiJGhr8y3xlkIO+ydZYOviS8+bhZgRsMsHHBdLBEdNKdhbTg
PzCPMuWouDJZCyrnVGA15pP0ikRp87k+gdpyldbA0qXJ/obX/KftOH8bhX6IwIhM
0CDIbvYjQWgyuGhvP1NL5Fkgw+9VSPFWFiJ6WSW46fDOXd3PByeXeAwrb/MeZFl2
dn2C0TMQJz5sNs3L5fkHqW7EgUfjlfDISiH5+R15uFdHCsDP6MGbH4ldZd/1xS2Y
XvcMjiMzpD4Vxs4cwKjVLey6k9VDqhtXmnu/+hjX51oSYUoMNodBuG1j6s4CChRa
8tzWQZs/AgMBAAGjDTALMAkGA1UdEwQCMAAwDQYJKoZIhvcNAQEFBQADggEBAF12
BVBiCaZ1qY4D6uqxVTQdSIifxgiqAATRmLWCukS9WZiP7YBm+T1IclFf4py7D9KL
+u51KYiuzwJl9ZawtcwlidCEaRimsCckUnJfiwSoeo8Htqt18C0qye4Bon+6hPU9
EBuRPGC2boi7CZtyUfv91tU7vQHsNsyfdj+ByT0m5pNt+XfzqWU20seqTWCoBbVG
LVlb4+Vml6p8/dMQ05ags2hHD5xJdEJkdXXQslkFILCWn0euAU/757GND8ttzdt0
hZ6EC4CMeqtM/GDlCUYRx7v3tOMenL6Wj2eFSQYoS0hk7FAeGhuJf59P2a1SNV6O
4m77/k7ZJklZVcAUgXc=
-----END CERTIFICATE-----

